target datalayout = "e-m:e-p270:32:32-p271:32:32-p272:64:64-i64:64-i128:128-f80:128-n8:16:32:64-S128"
target triple = "x86_64-pc-linux-gnu"

%"class.lean::mpz" = type { [1 x %struct.__mpz_struct] }
%struct.__mpz_struct = type { i32, i32, ptr }

@_ZN4lean3mpzC1Ej = unnamed_addr alias void (ptr, i32), ptr @_ZN4lean3mpzC2Ej
@_ZN4lean3mpzD1Ev = unnamed_addr alias void (ptr), ptr @_ZN4lean3mpzD2Ev

; Function Attrs: inlinehint mustprogress uwtable
define available_externally void @__gmpz_neg(ptr noundef %0, ptr noundef %1) #5 {
  %3 = alloca ptr, align 8
  %4 = alloca ptr, align 8
  store ptr %0, ptr %3, align 8, !tbaa !8
  store ptr %1, ptr %4, align 8, !tbaa !8
  %5 = load ptr, ptr %3, align 8, !tbaa !8
  %6 = load ptr, ptr %4, align 8, !tbaa !8
  %7 = icmp ne ptr %5, %6
  br i1 %7, label %8, label %11

8:                                                ; preds = %2
  %9 = load ptr, ptr %3, align 8, !tbaa !8
  %10 = load ptr, ptr %4, align 8, !tbaa !8
  call void @__gmpz_set(ptr noundef %9, ptr noundef %10)
  br label %11

11:                                               ; preds = %8, %2
  %12 = load ptr, ptr %3, align 8, !tbaa !8
  %13 = getelementptr inbounds nuw %struct.__mpz_struct, ptr %12, i32 0, i32 1
  %14 = load i32, ptr %13, align 4, !tbaa !15
  %15 = sub nsw i32 0, %14
  %16 = load ptr, ptr %3, align 8, !tbaa !8
  %17 = getelementptr inbounds nuw %struct.__mpz_struct, ptr %16, i32 0, i32 1
  store i32 %15, ptr %17, align 4, !tbaa !15
  ret void
}

; Function Attrs: mustprogress uwtable
define void @_ZN4lean3mpzC2El(ptr noundef nonnull align 8 dereferenceable(16) %0, i64 noundef %1) unnamed_addr #2 align 2 personality ptr @__gxx_personality_v0 {
  %3 = alloca ptr, align 8
  %4 = alloca i64, align 8
  %5 = alloca i64, align 8
  %6 = alloca %"class.lean::mpz", align 8
  %7 = alloca ptr, align 8
  %8 = alloca i32, align 4
  store ptr %0, ptr %3, align 8, !tbaa !3
  store i64 %1, ptr %4, align 8, !tbaa !13
  %9 = load ptr, ptr %3, align 8
  call void @llvm.lifetime.start.p0(i64 8, ptr %5) #17
  %10 = load i64, ptr %4, align 8, !tbaa !13
  %11 = icmp slt i64 %10, 0
  br i1 %11, label %12, label %15

12:                                               ; preds = %2
  %13 = load i64, ptr %4, align 8, !tbaa !13
  %14 = sub i64 0, %13
  store i64 %14, ptr %5, align 8, !tbaa !13
  br label %17

15:                                               ; preds = %2
  %16 = load i64, ptr %4, align 8, !tbaa !13
  store i64 %16, ptr %5, align 8, !tbaa !13
  br label %17

17:                                               ; preds = %15, %12
  %18 = getelementptr inbounds nuw %"class.lean::mpz", ptr %9, i32 0, i32 0
  %19 = getelementptr inbounds [1 x %struct.__mpz_struct], ptr %18, i64 0, i64 0
  %20 = load i64, ptr %5, align 8, !tbaa !13
  %21 = trunc i64 %20 to i32
  %22 = zext i32 %21 to i64
  call void @__gmpz_init_set_ui(ptr noundef %19, i64 noundef %22)
  call void @llvm.lifetime.start.p0(i64 16, ptr %6) #17
  %23 = load i64, ptr %5, align 8, !tbaa !13
  %24 = lshr i64 %23, 32
  %25 = trunc i64 %24 to i32
  call void @_ZN4lean3mpzC1Ej(ptr noundef nonnull align 8 dereferenceable(16) %6, i32 noundef %25)
  %26 = getelementptr inbounds nuw %"class.lean::mpz", ptr %6, i32 0, i32 0
  %27 = getelementptr inbounds [1 x %struct.__mpz_struct], ptr %26, i64 0, i64 0
  %28 = getelementptr inbounds nuw %"class.lean::mpz", ptr %6, i32 0, i32 0
  %29 = getelementptr inbounds [1 x %struct.__mpz_struct], ptr %28, i64 0, i64 0
  invoke void @__gmpz_mul_2exp(ptr noundef %27, ptr noundef %29, i64 noundef 32)
          to label %30 unwind label %46

30:                                               ; preds = %17
  %31 = getelementptr inbounds nuw %"class.lean::mpz", ptr %9, i32 0, i32 0
  %32 = getelementptr inbounds [1 x %struct.__mpz_struct], ptr %31, i64 0, i64 0
  %33 = getelementptr inbounds nuw %"class.lean::mpz", ptr %9, i32 0, i32 0
  %34 = getelementptr inbounds [1 x %struct.__mpz_struct], ptr %33, i64 0, i64 0
  %35 = getelementptr inbounds nuw %"class.lean::mpz", ptr %6, i32 0, i32 0
  %36 = getelementptr inbounds [1 x %struct.__mpz_struct], ptr %35, i64 0, i64 0
  invoke void @__gmpz_add(ptr noundef %32, ptr noundef %34, ptr noundef %36)
          to label %37 unwind label %46

37:                                               ; preds = %30
  %38 = load i64, ptr %4, align 8, !tbaa !13
  %39 = icmp slt i64 %38, 0
  br i1 %39, label %40, label %50

40:                                               ; preds = %37
  %41 = getelementptr inbounds nuw %"class.lean::mpz", ptr %9, i32 0, i32 0
  %42 = getelementptr inbounds [1 x %struct.__mpz_struct], ptr %41, i64 0, i64 0
  %43 = getelementptr inbounds nuw %"class.lean::mpz", ptr %9, i32 0, i32 0
  %44 = getelementptr inbounds [1 x %struct.__mpz_struct], ptr %43, i64 0, i64 0
  invoke void @__gmpz_neg(ptr noundef %42, ptr noundef %44)
          to label %45 unwind label %46

45:                                               ; preds = %40
  br label %50

46:                                               ; preds = %40, %30, %17
  %47 = landingpad { ptr, i32 }
          cleanup
  %48 = extractvalue { ptr, i32 } %47, 0
  store ptr %48, ptr %7, align 8
  %49 = extractvalue { ptr, i32 } %47, 1
  store i32 %49, ptr %8, align 4
  call void @_ZN4lean3mpzD1Ev(ptr noundef nonnull align 8 dereferenceable(16) %6) #17
  call void @llvm.lifetime.end.p0(i64 16, ptr %6) #17
  call void @llvm.lifetime.end.p0(i64 8, ptr %5) #17
  br label %51

50:                                               ; preds = %45, %37
  call void @_ZN4lean3mpzD1Ev(ptr noundef nonnull align 8 dereferenceable(16) %6) #17
  call void @llvm.lifetime.end.p0(i64 16, ptr %6) #17
  call void @llvm.lifetime.end.p0(i64 8, ptr %5) #17
  ret void

51:                                               ; preds = %46
  %52 = load ptr, ptr %7, align 8
  %53 = load i32, ptr %8, align 4
  %54 = insertvalue { ptr, i32 } poison, ptr %52, 0
  %55 = insertvalue { ptr, i32 } %54, i32 %53, 1
  resume { ptr, i32 } %55
}