; Function Attrs: mustprogress uwtable
define void @_ZN4lean3mpzC2El(ptr noundef nonnull align 8 dereferenceable(16) %0, i64 noundef %1) unnamed_addr #2 align 2 personality ptr @__gxx_personality_v0 {
  %3 = alloca %"class.lean::mpz", align 8
  %4 = icmp slt i64 %1, 0
  %.0 = tail call i64 @llvm.abs.i64(i64 %1, i1 false)
  %5 = and i64 %.0, 4294967295
  tail call void @__gmpz_init_set_ui(ptr noundef nonnull %0, i64 noundef %5)
  call void @llvm.lifetime.start.p0(i64 16, ptr nonnull %3) #18
  %6 = lshr i64 %.0, 32
  %7 = trunc nuw i64 %6 to i32
  call void @_ZN4lean3mpzC1Ej(ptr noundef nonnull align 8 dereferenceable(16) %3, i32 noundef %7)
  invoke void @__gmpz_mul_2exp(ptr noundef nonnull %3, ptr noundef nonnull %3, i64 noundef 32)
          to label %8 unwind label %14

8:                                                ; preds = %2
  invoke void @__gmpz_add(ptr noundef nonnull %0, ptr noundef nonnull %0, ptr noundef nonnull %3)
          to label %9 unwind label %14

9:                                                ; preds = %8
  br i1 %4, label %10, label %16

10:                                               ; preds = %9
  %11 = getelementptr inbounds nuw i8, ptr %0, i64 4
  %12 = load i32, ptr %11, align 4, !tbaa !3
  %13 = sub nsw i32 0, %12
  store i32 %13, ptr %11, align 4, !tbaa !3
  br label %16

14:                                               ; preds = %8, %2
  %15 = landingpad { ptr, i32 }
          cleanup
  call void @_ZN4lean3mpzD1Ev(ptr noundef nonnull align 8 dereferenceable(16) %3) #18
  call void @llvm.lifetime.end.p0(i64 16, ptr nonnull %3) #18
  resume { ptr, i32 } %15

16:                                               ; preds = %10, %9
  call void @_ZN4lean3mpzD1Ev(ptr noundef nonnull align 8 dereferenceable(16) %3) #18
  call void @llvm.lifetime.end.p0(i64 16, ptr nonnull %3) #18
  ret void
}